target datalayout = "e-m:e-p270:32:32-p271:32:32-p272:64:64-i64:64-i128:128-f80:128-n8:16:32:64-S128"
target triple = "x86_64-pc-linux-gnu"

@.str.17 = private unnamed_addr constant [25 x i8] c"../openssl/test/bntest.c\00", align 1
@.str.493 = private unnamed_addr constant [20 x i8] c"unexpected %s value\00", align 1
@.str.494 = private unnamed_addr constant [9 x i8] c"expected\00", align 1
@.str.495 = private unnamed_addr constant [7 x i8] c"actual\00", align 1
@.str.627 = private unnamed_addr constant [7 x i8] c"LShift\00", align 1
@.str.639 = private unnamed_addr constant [18 x i8] c"a = getBN(s, \22A\22)\00", align 1
@.str.640 = private unnamed_addr constant [2 x i8] c"A\00", align 1
@.str.644 = private unnamed_addr constant [15 x i8] c"ret = BN_new()\00", align 1
@.str.707 = private unnamed_addr constant [28 x i8] c"lshift = getBN(s, \22LShift\22)\00", align 1
@.str.708 = private unnamed_addr constant [2 x i8] c"N\00", align 1
@.str.709 = private unnamed_addr constant [21 x i8] c"BN_lshift(ret, a, n)\00", align 1
@.str.710 = private unnamed_addr constant [7 x i8] c"A << N\00", align 1
@.str.711 = private unnamed_addr constant [26 x i8] c"BN_rshift(ret, lshift, n)\00", align 1
@.str.712 = private unnamed_addr constant [7 x i8] c"A >> N\00", align 1
@.str.713 = private unnamed_addr constant [26 x i8] c"ret = getBN(s, attribute)\00", align 1
@.str.714 = private unnamed_addr constant [24 x i8] c"word = BN_get_word(ret)\00", align 1
@.str.715 = private unnamed_addr constant [8 x i8] c"INT_MAX\00", align 1

; Function Attrs: nounwind uwtable
define internal i32 @equalBN(ptr noundef %0, ptr noundef %1, ptr noundef %2) #0 {
  %4 = alloca i32, align 4
  %5 = alloca ptr, align 8
  %6 = alloca ptr, align 8
  %7 = alloca ptr, align 8
  store ptr %0, ptr %5, align 8, !tbaa !25
  store ptr %1, ptr %6, align 8, !tbaa !13
  store ptr %2, ptr %7, align 8, !tbaa !13
  %8 = load ptr, ptr %6, align 8, !tbaa !13
  %9 = load ptr, ptr %7, align 8, !tbaa !13
  %10 = call i32 @BN_cmp(ptr noundef %8, ptr noundef %9)
  %11 = icmp eq i32 %10, 0
  br i1 %11, label %12, label %13

12:                                               ; preds = %3
  store i32 1, ptr %4, align 4
  br label %18

13:                                               ; preds = %3
  %14 = load ptr, ptr %5, align 8, !tbaa !25
  call void (ptr, i32, ptr, ...) @test_error(ptr noundef @.str.17, i32 noundef 135, ptr noundef @.str.493, ptr noundef %14)
  %15 = load ptr, ptr %6, align 8, !tbaa !13
  %16 = load ptr, ptr %7, align 8, !tbaa !13
  %17 = call i32 @test_BN_eq(ptr noundef @.str.17, i32 noundef 136, ptr noundef @.str.494, ptr noundef @.str.495, ptr noundef %15, ptr noundef %16)
  store i32 0, ptr %4, align 4
  br label %18

18:                                               ; preds = %13, %12
  %19 = load i32, ptr %4, align 4
  ret i32 %19
}

; Function Attrs: nounwind uwtable
define internal i32 @getint(ptr noundef %0, ptr noundef %1, ptr noundef %2) #0 {
  %4 = alloca ptr, align 8
  %5 = alloca ptr, align 8
  %6 = alloca ptr, align 8
  %7 = alloca ptr, align 8
  %8 = alloca i64, align 8
  %9 = alloca i32, align 4
  store ptr %0, ptr %4, align 8, !tbaa !70
  store ptr %1, ptr %5, align 8, !tbaa !111
  store ptr %2, ptr %6, align 8, !tbaa !25
  call void @llvm.lifetime.start.p0(i64 8, ptr %7) #7
  call void @llvm.lifetime.start.p0(i64 8, ptr %8) #7
  call void @llvm.lifetime.start.p0(i64 4, ptr %9) #7
  store i32 0, ptr %9, align 4, !tbaa !4
  %10 = load ptr, ptr %4, align 8, !tbaa !70
  %11 = load ptr, ptr %6, align 8, !tbaa !25
  %12 = call ptr @getBN(ptr noundef %10, ptr noundef %11)
  store ptr %12, ptr %7, align 8, !tbaa !13
  %13 = call i32 @test_ptr(ptr noundef @.str.17, i32 noundef 119, ptr noundef @.str.713, ptr noundef %12)
  %14 = icmp ne i32 %13, 0
  br i1 %14, label %15, label %20

15:                                               ; preds = %3
  %16 = load ptr, ptr %7, align 8, !tbaa !13
  %17 = call i64 @BN_get_word(ptr noundef %16)
  store i64 %17, ptr %8, align 8, !tbaa !30
  %18 = call i32 @test_ulong_le(ptr noundef @.str.17, i32 noundef 120, ptr noundef @.str.714, ptr noundef @.str.715, i64 noundef %17, i64 noundef 2147483647)
  %19 = icmp ne i32 %18, 0
  br i1 %19, label %21, label %20

20:                                               ; preds = %15, %3
  br label %25

21:                                               ; preds = %15
  %22 = load i64, ptr %8, align 8, !tbaa !30
  %23 = trunc i64 %22 to i32
  %24 = load ptr, ptr %5, align 8, !tbaa !111
  store i32 %23, ptr %24, align 4, !tbaa !4
  store i32 1, ptr %9, align 4, !tbaa !4
  br label %25

25:                                               ; preds = %21, %20
  %26 = load ptr, ptr %7, align 8, !tbaa !13
  call void @BN_free(ptr noundef %26)
  %27 = load i32, ptr %9, align 4, !tbaa !4
  call void @llvm.lifetime.end.p0(i64 4, ptr %9) #7
  call void @llvm.lifetime.end.p0(i64 8, ptr %8) #7
  call void @llvm.lifetime.end.p0(i64 8, ptr %7) #7
  ret i32 %27
}

; Function Attrs: nounwind uwtable
define internal i32 @file_lshift(ptr noundef %0) #0 {
  %2 = alloca ptr, align 8
  %3 = alloca ptr, align 8
  %4 = alloca ptr, align 8
  %5 = alloca ptr, align 8
  %6 = alloca i32, align 4
  %7 = alloca i32, align 4
  store ptr %0, ptr %2, align 8, !tbaa !70
  call void @llvm.lifetime.start.p0(i64 8, ptr %3) #7
  store ptr null, ptr %3, align 8, !tbaa !13
  call void @llvm.lifetime.start.p0(i64 8, ptr %4) #7
  store ptr null, ptr %4, align 8, !tbaa !13
  call void @llvm.lifetime.start.p0(i64 8, ptr %5) #7
  store ptr null, ptr %5, align 8, !tbaa !13
  call void @llvm.lifetime.start.p0(i64 4, ptr %6) #7
  store i32 0, ptr %6, align 4, !tbaa !4
  call void @llvm.lifetime.start.p0(i64 4, ptr %7) #7
  store i32 0, ptr %7, align 4, !tbaa !4
  %8 = load ptr, ptr %2, align 8, !tbaa !70
  %9 = call ptr @getBN(ptr noundef %8, ptr noundef @.str.640)
  store ptr %9, ptr %3, align 8, !tbaa !13
  %10 = call i32 @test_ptr(ptr noundef @.str.17, i32 noundef 1381, ptr noundef @.str.639, ptr noundef %9)
  %11 = icmp ne i32 %10, 0
  br i1 %11, label %12, label %25

12:                                               ; preds = %1
  %13 = load ptr, ptr %2, align 8, !tbaa !70
  %14 = call ptr @getBN(ptr noundef %13, ptr noundef @.str.627)
  store ptr %14, ptr %4, align 8, !tbaa !13
  %15 = call i32 @test_ptr(ptr noundef @.str.17, i32 noundef 1382, ptr noundef @.str.707, ptr noundef %14)
  %16 = icmp ne i32 %15, 0
  br i1 %16, label %17, label %25

17:                                               ; preds = %12
  %18 = call ptr @BN_new()
  store ptr %18, ptr %5, align 8, !tbaa !13
  %19 = call i32 @test_ptr(ptr noundef @.str.17, i32 noundef 1383, ptr noundef @.str.644, ptr noundef %18)
  %20 = icmp ne i32 %19, 0
  br i1 %20, label %21, label %25

21:                                               ; preds = %17
  %22 = load ptr, ptr %2, align 8, !tbaa !70
  %23 = call i32 @getint(ptr noundef %22, ptr noundef %6, ptr noundef @.str.708)
  %24 = icmp ne i32 %23, 0
  br i1 %24, label %26, label %25

25:                                               ; preds = %21, %17, %12, %1
  br label %56

26:                                               ; preds = %21
  %27 = load ptr, ptr %5, align 8, !tbaa !13
  %28 = load ptr, ptr %3, align 8, !tbaa !13
  %29 = load i32, ptr %6, align 4, !tbaa !4
  %30 = call i32 @BN_lshift(ptr noundef %27, ptr noundef %28, i32 noundef %29)
  %31 = icmp ne i32 %30, 0
  %32 = zext i1 %31 to i32
  %33 = call i32 @test_true(ptr noundef @.str.17, i32 noundef 1387, ptr noundef @.str.709, i32 noundef %32)
  %34 = icmp ne i32 %33, 0
  br i1 %34, label %35, label %54

35:                                               ; preds = %26
  %36 = load ptr, ptr %4, align 8, !tbaa !13
  %37 = load ptr, ptr %5, align 8, !tbaa !13
  %38 = call i32 @equalBN(ptr noundef @.str.710, ptr noundef %36, ptr noundef %37)
  %39 = icmp ne i32 %38, 0
  br i1 %39, label %40, label %54

40:                                               ; preds = %35
  %41 = load ptr, ptr %5, align 8, !tbaa !13
  %42 = load ptr, ptr %4, align 8, !tbaa !13
  %43 = load i32, ptr %6, align 4, !tbaa !4
  %44 = call i32 @BN_rshift(ptr noundef %41, ptr noundef %42, i32 noundef %43)
  %45 = icmp ne i32 %44, 0
  %46 = zext i1 %45 to i32
  %47 = call i32 @test_true(ptr noundef @.str.17, i32 noundef 1389, ptr noundef @.str.711, i32 noundef %46)
  %48 = icmp ne i32 %47, 0
  br i1 %48, label %49, label %54

49:                                               ; preds = %40
  %50 = load ptr, ptr %3, align 8, !tbaa !13
  %51 = load ptr, ptr %5, align 8, !tbaa !13
  %52 = call i32 @equalBN(ptr noundef @.str.712, ptr noundef %50, ptr noundef %51)
  %53 = icmp ne i32 %52, 0
  br i1 %53, label %55, label %54

54:                                               ; preds = %49, %40, %35, %26
  br label %56

55:                                               ; preds = %49
  store i32 1, ptr %7, align 4, !tbaa !4
  br label %56

56:                                               ; preds = %55, %54, %25
  %57 = load ptr, ptr %3, align 8, !tbaa !13
  call void @BN_free(ptr noundef %57)
  %58 = load ptr, ptr %4, align 8, !tbaa !13
  call void @BN_free(ptr noundef %58)
  %59 = load ptr, ptr %5, align 8, !tbaa !13
  call void @BN_free(ptr noundef %59)
  %60 = load i32, ptr %7, align 4, !tbaa !4
  call void @llvm.lifetime.end.p0(i64 4, ptr %7) #7
  call void @llvm.lifetime.end.p0(i64 4, ptr %6) #7
  call void @llvm.lifetime.end.p0(i64 8, ptr %5) #7
  call void @llvm.lifetime.end.p0(i64 8, ptr %4) #7
  call void @llvm.lifetime.end.p0(i64 8, ptr %3) #7
  ret i32 %60
}