; Function Attrs: nounwind uwtable
define internal range(i32 0, 2) i32 @file_lshift(ptr noundef readonly captures(none) %0) #1 {
  %2 = tail call fastcc ptr @getBN(ptr noundef %0, ptr noundef nonnull @.str.640)
  %3 = tail call i32 @test_ptr(ptr noundef nonnull @.str.17, i32 noundef 1381, ptr noundef nonnull @.str.639, ptr noundef %2) #8
  %.not = icmp eq i32 %3, 0
  br i1 %.not, label %equalBN.exit25, label %4

4:                                                ; preds = %1
  %5 = tail call fastcc ptr @getBN(ptr noundef %0, ptr noundef nonnull @.str.627)
  %6 = tail call i32 @test_ptr(ptr noundef nonnull @.str.17, i32 noundef 1382, ptr noundef nonnull @.str.707, ptr noundef %5) #8
  %.not16 = icmp eq i32 %6, 0
  br i1 %.not16, label %equalBN.exit25, label %7

7:                                                ; preds = %4
  %8 = tail call ptr @BN_new() #8
  %9 = tail call i32 @test_ptr(ptr noundef nonnull @.str.17, i32 noundef 1383, ptr noundef nonnull @.str.644, ptr noundef %8) #8
  %.not17 = icmp eq i32 %9, 0
  br i1 %.not17, label %equalBN.exit25, label %10

10:                                               ; preds = %7
  %11 = tail call fastcc ptr @getBN(ptr noundef readonly %0, ptr noundef nonnull @.str.708)
  %12 = tail call i32 @test_ptr(ptr noundef nonnull @.str.17, i32 noundef 119, ptr noundef nonnull @.str.713, ptr noundef %11) #8
  %.not.i = icmp eq i32 %12, 0
  br i1 %.not.i, label %getint.exit.thread, label %13

13:                                               ; preds = %10
  %14 = tail call i64 @BN_get_word(ptr noundef %11) #8
  %15 = tail call i32 @test_ulong_le(ptr noundef nonnull @.str.17, i32 noundef 120, ptr noundef nonnull @.str.714, ptr noundef nonnull @.str.715, i64 noundef %14, i64 noundef 2147483647) #8
  %.not6.i = icmp eq i32 %15, 0
  br i1 %.not6.i, label %getint.exit.thread, label %16

getint.exit.thread:                               ; preds = %13, %10
  tail call void @BN_free(ptr noundef %11) #8
  br label %equalBN.exit25

16:                                               ; preds = %13
  %17 = trunc i64 %14 to i32
  tail call void @BN_free(ptr noundef %11) #8
  %18 = tail call i32 @BN_lshift(ptr noundef %8, ptr noundef %2, i32 noundef %17) #8
  %19 = icmp ne i32 %18, 0
  %20 = zext i1 %19 to i32
  %21 = tail call i32 @test_true(ptr noundef nonnull @.str.17, i32 noundef 1387, ptr noundef nonnull @.str.709, i32 noundef %20) #8
  %.not19 = icmp eq i32 %21, 0
  br i1 %.not19, label %equalBN.exit25, label %22

22:                                               ; preds = %16
  %23 = tail call i32 @BN_cmp(ptr noundef %5, ptr noundef %8) #8
  %24 = icmp eq i32 %23, 0
  br i1 %24, label %equalBN.exit, label %equalBN.exit.thread

equalBN.exit.thread:                              ; preds = %22
  tail call void (ptr, i32, ptr, ...) @test_error(ptr noundef nonnull @.str.17, i32 noundef 135, ptr noundef nonnull @.str.493, ptr noundef nonnull @.str.710) #8
  %25 = tail call i32 @test_BN_eq(ptr noundef nonnull @.str.17, i32 noundef 136, ptr noundef nonnull @.str.494, ptr noundef nonnull @.str.495, ptr noundef %5, ptr noundef %8) #8
  br label %equalBN.exit25

equalBN.exit:                                     ; preds = %22
  %26 = tail call i32 @BN_rshift(ptr noundef %8, ptr noundef %5, i32 noundef %17) #8
  %27 = icmp ne i32 %26, 0
  %28 = zext i1 %27 to i32
  %29 = tail call i32 @test_true(ptr noundef nonnull @.str.17, i32 noundef 1389, ptr noundef nonnull @.str.711, i32 noundef %28) #8
  %.not21 = icmp eq i32 %29, 0
  br i1 %.not21, label %equalBN.exit25, label %30

30:                                               ; preds = %equalBN.exit
  %31 = tail call i32 @BN_cmp(ptr noundef %2, ptr noundef %8) #8
  %32 = icmp eq i32 %31, 0
  br i1 %32, label %equalBN.exit25, label %33

33:                                               ; preds = %30
  tail call void (ptr, i32, ptr, ...) @test_error(ptr noundef nonnull @.str.17, i32 noundef 135, ptr noundef nonnull @.str.493, ptr noundef nonnull @.str.712) #8
  %34 = tail call i32 @test_BN_eq(ptr noundef nonnull @.str.17, i32 noundef 136, ptr noundef nonnull @.str.494, ptr noundef nonnull @.str.495, ptr noundef %2, ptr noundef %8) #8
  br label %equalBN.exit25

equalBN.exit25:                                   ; preds = %33, %30, %equalBN.exit.thread, %getint.exit.thread, %16, %equalBN.exit, %1, %4, %7
  %.015 = phi ptr [ %5, %equalBN.exit ], [ %5, %16 ], [ %5, %7 ], [ %5, %4 ], [ null, %1 ], [ %5, %getint.exit.thread ], [ %5, %equalBN.exit.thread ], [ %5, %30 ], [ %5, %33 ]
  %.014 = phi ptr [ %8, %equalBN.exit ], [ %8, %16 ], [ %8, %7 ], [ null, %4 ], [ null, %1 ], [ %8, %getint.exit.thread ], [ %8, %equalBN.exit.thread ], [ %8, %30 ], [ %8, %33 ]
  %.0 = phi i32 [ 0, %equalBN.exit ], [ 0, %16 ], [ 0, %7 ], [ 0, %4 ], [ 0, %1 ], [ 0, %getint.exit.thread ], [ 0, %equalBN.exit.thread ], [ 1, %30 ], [ 0, %33 ]
  tail call void @BN_free(ptr noundef %2) #8
  tail call void @BN_free(ptr noundef %.015) #8
  tail call void @BN_free(ptr noundef %.014) #8
  ret i32 %.0
}